target datalayout = "e-m:e-p270:32:32-p271:32:32-p272:64:64-i64:64-i128:128-f80:128-n8:16:32:64-S128"
target triple = "x86_64-pc-linux-gnu"

%struct.exp_pdu_data_item = type { ptr, ptr, ptr }
%struct._packet_info = type { ptr, ptr, i32, i32, %struct.nstime_t, %struct.nstime_t, %struct.nstime_t, i32, ptr, ptr, ptr, ptr, %struct._address, %struct._address, %struct._address, %struct._address, %struct._address, %struct._address, i32, ptr, i32, %struct.anon, i32, i32, i32, i32, ptr, i32, ptr, ptr, i16, i16, i32, i32, i16, i32, i32, ptr, ptr, ptr, i8, i8, i16, i16, i16, i32, i16, i16, ptr, ptr, ptr, ptr, ptr, i32 }
%struct.nstime_t = type { i64, i32 }
%struct._address = type { i32, i32, ptr, ptr }
%struct.anon = type { i8, [3 x i8] }
%struct._exp_pdu_data_t = type { i32, ptr, i32, i32, ptr }

@exported_pdu_tap = internal global i32 0, align 4
@.str.15 = private unnamed_addr constant [9 x i8] c"tcp.port\00", align 1
@exp_pdu_data_src_ip = external global %struct.exp_pdu_data_item, align 8
@exp_pdu_data_dst_ip = external global %struct.exp_pdu_data_item, align 8
@exp_pdu_data_port_type = external global %struct.exp_pdu_data_item, align 8
@exp_pdu_data_src_port = external global %struct.exp_pdu_data_item, align 8
@exp_pdu_data_dst_port = external global %struct.exp_pdu_data_item, align 8
@exp_pdu_data_orig_frame_num = external global %struct.exp_pdu_data_item, align 8
@__const.handle_export_pdu_dissection_table.exp_pdu_data_table_value = private unnamed_addr constant %struct.exp_pdu_data_item { ptr @exp_pdu_data_dissector_table_num_value_size, ptr @exp_pdu_data_dissector_table_num_value_populate_data, ptr null }, align 8
@__const.handle_export_pdu_dissection_table.exp_pdu_data_dissector_data = private unnamed_addr constant %struct.exp_pdu_data_item { ptr @exp_pdu_tcp_dissector_data_size, ptr @exp_pdu_tcp_dissector_data_populate_data, ptr null }, align 8

; Function Attrs: nounwind uwtable
define internal ptr @handle_export_pdu_check_desegmentation(ptr noundef %0, ptr noundef %1) #0 {
  %3 = alloca ptr, align 8
  %4 = alloca ptr, align 8
  %5 = alloca ptr, align 8
  store ptr %0, ptr %4, align 8
  store ptr %1, ptr %5, align 8
  %6 = load ptr, ptr %4, align 8
  %7 = getelementptr inbounds %struct._packet_info, ptr %6, i32 0, i32 30
  %8 = load i16, ptr %7, align 8
  %9 = zext i16 %8 to i32
  %10 = icmp sgt i32 %9, 0
  br i1 %10, label %11, label %28

11:                                               ; preds = %2
  %12 = load ptr, ptr %4, align 8
  %13 = getelementptr inbounds %struct._packet_info, ptr %12, i32 0, i32 33
  %14 = load i32, ptr %13, align 8
  %15 = icmp ne i32 %14, 0
  br i1 %15, label %16, label %28

16:                                               ; preds = %11
  %17 = load ptr, ptr %4, align 8
  %18 = getelementptr inbounds %struct._packet_info, ptr %17, i32 0, i32 32
  %19 = load i32, ptr %18, align 4
  %20 = icmp eq i32 %19, 0
  br i1 %20, label %21, label %22

21:                                               ; preds = %16
  store ptr null, ptr %3, align 8
  br label %30

22:                                               ; preds = %16
  %23 = load ptr, ptr %5, align 8
  %24 = load ptr, ptr %4, align 8
  %25 = getelementptr inbounds %struct._packet_info, ptr %24, i32 0, i32 32
  %26 = load i32, ptr %25, align 4
  %27 = call ptr @tvb_new_subset_length(ptr noundef %23, i32 noundef 0, i32 noundef %26)
  store ptr %27, ptr %5, align 8
  br label %28

28:                                               ; preds = %22, %11, %2
  %29 = load ptr, ptr %5, align 8
  store ptr %29, ptr %3, align 8
  br label %30

30:                                               ; preds = %28, %21
  %31 = load ptr, ptr %3, align 8
  ret ptr %31
}

; Function Attrs: nounwind uwtable
define internal void @handle_export_pdu_dissection_table(ptr noundef %0, ptr noundef %1, i32 noundef %2, ptr noundef %3) #0 {
  %5 = alloca ptr, align 8
  %6 = alloca ptr, align 8
  %7 = alloca i32, align 4
  %8 = alloca ptr, align 8
  %9 = alloca %struct.exp_pdu_data_item, align 8
  %10 = alloca %struct.exp_pdu_data_item, align 8
  %11 = alloca [9 x ptr], align 16
  %12 = alloca ptr, align 8
  store ptr %0, ptr %5, align 8
  store ptr %1, ptr %6, align 8
  store i32 %2, ptr %7, align 4
  store ptr %3, ptr %8, align 8
  %13 = load i32, ptr @exported_pdu_tap, align 4
  %14 = call i32 @have_tap_listener(i32 noundef %13)
  %15 = icmp ne i32 %14, 0
  br i1 %15, label %16, label %56

16:                                               ; preds = %4
  %17 = load ptr, ptr %5, align 8
  %18 = load ptr, ptr %6, align 8
  %19 = call ptr @handle_export_pdu_check_desegmentation(ptr noundef %17, ptr noundef %18)
  store ptr %19, ptr %6, align 8
  %20 = load ptr, ptr %6, align 8
  %21 = icmp eq ptr %20, null
  br i1 %21, label %22, label %23

22:                                               ; preds = %16
  br label %56

23:                                               ; preds = %16
  call void @llvm.memcpy.p0.p0.i64(ptr align 8 %9, ptr align 8 @__const.handle_export_pdu_dissection_table.exp_pdu_data_table_value, i64 24, i1 false)
  call void @llvm.memcpy.p0.p0.i64(ptr align 8 %10, ptr align 8 @__const.handle_export_pdu_dissection_table.exp_pdu_data_dissector_data, i64 24, i1 false)
  %24 = getelementptr inbounds [9 x ptr], ptr %11, i64 0, i64 0
  store ptr @exp_pdu_data_src_ip, ptr %24, align 8
  %25 = getelementptr inbounds ptr, ptr %24, i64 1
  store ptr @exp_pdu_data_dst_ip, ptr %25, align 8
  %26 = getelementptr inbounds ptr, ptr %25, i64 1
  store ptr @exp_pdu_data_port_type, ptr %26, align 8
  %27 = getelementptr inbounds ptr, ptr %26, i64 1
  store ptr @exp_pdu_data_src_port, ptr %27, align 8
  %28 = getelementptr inbounds ptr, ptr %27, i64 1
  store ptr @exp_pdu_data_dst_port, ptr %28, align 8
  %29 = getelementptr inbounds ptr, ptr %28, i64 1
  store ptr @exp_pdu_data_orig_frame_num, ptr %29, align 8
  %30 = getelementptr inbounds ptr, ptr %29, i64 1
  store ptr %9, ptr %30, align 8
  %31 = getelementptr inbounds ptr, ptr %30, i64 1
  store ptr %10, ptr %31, align 8
  %32 = getelementptr inbounds ptr, ptr %31, i64 1
  store ptr null, ptr %32, align 8
  %33 = load i32, ptr %7, align 4
  %34 = zext i32 %33 to i64
  %35 = inttoptr i64 %34 to ptr
  %36 = getelementptr inbounds %struct.exp_pdu_data_item, ptr %9, i32 0, i32 2
  store ptr %35, ptr %36, align 8
  %37 = load ptr, ptr %8, align 8
  %38 = getelementptr inbounds %struct.exp_pdu_data_item, ptr %10, i32 0, i32 2
  store ptr %37, ptr %38, align 8
  %39 = load ptr, ptr %5, align 8
  %40 = getelementptr inbounds [9 x ptr], ptr %11, i64 0, i64 0
  %41 = call ptr @export_pdu_create_tags(ptr noundef %39, ptr noundef @.str.15, i16 noundef zeroext 14, ptr noundef %40)
  store ptr %41, ptr %12, align 8
  %42 = load ptr, ptr %6, align 8
  %43 = call i32 @tvb_captured_length(ptr noundef %42)
  %44 = load ptr, ptr %12, align 8
  %45 = getelementptr inbounds %struct._exp_pdu_data_t, ptr %44, i32 0, i32 2
  store i32 %43, ptr %45, align 8
  %46 = load ptr, ptr %6, align 8
  %47 = call i32 @tvb_reported_length(ptr noundef %46)
  %48 = load ptr, ptr %12, align 8
  %49 = getelementptr inbounds %struct._exp_pdu_data_t, ptr %48, i32 0, i32 3
  store i32 %47, ptr %49, align 4
  %50 = load ptr, ptr %6, align 8
  %51 = load ptr, ptr %12, align 8
  %52 = getelementptr inbounds %struct._exp_pdu_data_t, ptr %51, i32 0, i32 4
  store ptr %50, ptr %52, align 8
  %53 = load i32, ptr @exported_pdu_tap, align 4
  %54 = load ptr, ptr %5, align 8
  %55 = load ptr, ptr %12, align 8
  call void @tap_queue_packet(i32 noundef %53, ptr noundef %54, ptr noundef %55)
  br label %56

56:                                               ; preds = %23, %22, %4
  ret void
}