; Function Attrs: nounwind uwtable
define internal fastcc void @handle_export_pdu_dissection_table(ptr noundef %0, ptr noundef %1, i32 noundef %2, ptr noundef %3) unnamed_addr #0 {
  %5 = alloca %struct.exp_pdu_data_item, align 8
  %6 = alloca %struct.exp_pdu_data_item, align 8
  %7 = alloca [9 x ptr], align 16
  %8 = load i32, ptr @exported_pdu_tap, align 4
  %9 = tail call i32 @have_tap_listener(i32 noundef %8) #20
  %.not = icmp eq i32 %9, 0
  br i1 %.not, label %handle_export_pdu_check_desegmentation.exit.thread, label %10

10:                                               ; preds = %4
  %11 = getelementptr inbounds nuw i8, ptr %0, i64 328
  %12 = load i16, ptr %11, align 8
  %.not.i = icmp eq i16 %12, 0
  br i1 %.not.i, label %handle_export_pdu_check_desegmentation.exit, label %13

13:                                               ; preds = %10
  %14 = getelementptr inbounds nuw i8, ptr %0, i64 336
  %15 = load i32, ptr %14, align 8
  %.not9.i = icmp eq i32 %15, 0
  br i1 %.not9.i, label %handle_export_pdu_check_desegmentation.exit, label %16

16:                                               ; preds = %13
  %17 = getelementptr inbounds nuw i8, ptr %0, i64 332
  %18 = load i32, ptr %17, align 4
  %19 = icmp eq i32 %18, 0
  br i1 %19, label %handle_export_pdu_check_desegmentation.exit.thread, label %20

20:                                               ; preds = %16
  %21 = tail call ptr @tvb_new_subset_length(ptr noundef %1, i32 noundef 0, i32 noundef %18) #20
  br label %handle_export_pdu_check_desegmentation.exit

handle_export_pdu_check_desegmentation.exit:      ; preds = %10, %13, %20
  %.07.i = phi ptr [ %21, %20 ], [ %1, %13 ], [ %1, %10 ]
  %22 = icmp eq ptr %.07.i, null
  br i1 %22, label %handle_export_pdu_check_desegmentation.exit.thread, label %23

23:                                               ; preds = %handle_export_pdu_check_desegmentation.exit
  call void @llvm.memcpy.p0.p0.i64(ptr noundef nonnull align 8 dereferenceable(24) %5, ptr noundef nonnull align 8 dereferenceable(24) @__const.handle_export_pdu_dissection_table.exp_pdu_data_table_value, i64 16, i1 false)
  call void @llvm.memcpy.p0.p0.i64(ptr noundef nonnull align 8 dereferenceable(24) %6, ptr noundef nonnull align 8 dereferenceable(24) @__const.handle_export_pdu_heuristic.exp_pdu_data_dissector_data, i64 16, i1 false)
  store ptr @exp_pdu_data_src_ip, ptr %7, align 16
  %24 = getelementptr inbounds nuw i8, ptr %7, i64 8
  store ptr @exp_pdu_data_dst_ip, ptr %24, align 8
  %25 = getelementptr inbounds nuw i8, ptr %7, i64 16
  store ptr @exp_pdu_data_port_type, ptr %25, align 16
  %26 = getelementptr inbounds nuw i8, ptr %7, i64 24
  store ptr @exp_pdu_data_src_port, ptr %26, align 8
  %27 = getelementptr inbounds nuw i8, ptr %7, i64 32
  store ptr @exp_pdu_data_dst_port, ptr %27, align 16
  %28 = getelementptr inbounds nuw i8, ptr %7, i64 40
  store ptr @exp_pdu_data_orig_frame_num, ptr %28, align 8
  %29 = getelementptr inbounds nuw i8, ptr %7, i64 48
  store ptr %5, ptr %29, align 16
  %30 = getelementptr inbounds nuw i8, ptr %7, i64 56
  store ptr %6, ptr %30, align 8
  %31 = getelementptr inbounds nuw i8, ptr %7, i64 64
  store ptr null, ptr %31, align 16
  %32 = zext i32 %2 to i64
  %33 = inttoptr i64 %32 to ptr
  %34 = getelementptr inbounds nuw i8, ptr %5, i64 16
  store ptr %33, ptr %34, align 8
  %35 = getelementptr inbounds nuw i8, ptr %6, i64 16
  store ptr %3, ptr %35, align 8
  %36 = call ptr @export_pdu_create_tags(ptr noundef nonnull %0, ptr noundef nonnull @.str.15, i16 noundef zeroext 14, ptr noundef nonnull %7) #20
  %37 = call i32 @tvb_captured_length(ptr noundef nonnull %.07.i) #20
  %38 = getelementptr inbounds nuw i8, ptr %36, i64 16
  store i32 %37, ptr %38, align 8
  %39 = call i32 @tvb_reported_length(ptr noundef nonnull %.07.i) #20
  %40 = getelementptr inbounds nuw i8, ptr %36, i64 20
  store i32 %39, ptr %40, align 4
  %41 = getelementptr inbounds nuw i8, ptr %36, i64 24
  store ptr %.07.i, ptr %41, align 8
  %42 = load i32, ptr @exported_pdu_tap, align 4
  call void @tap_queue_packet(i32 noundef %42, ptr noundef nonnull %0, ptr noundef %36) #20
  br label %handle_export_pdu_check_desegmentation.exit.thread

handle_export_pdu_check_desegmentation.exit.thread: ; preds = %16, %handle_export_pdu_check_desegmentation.exit, %23, %4
  ret void
}